; Function Attrs: mustprogress nounwind uwtable
define hidden noundef zeroext i1 @_ZN6hermes2vm17sampling_profiler7Sampler7disableEv(ptr noundef nonnull align 8 dereferenceable(208) %this) local_unnamed_addr #0 align 2 {
entry:
  %profilerLock_ = getelementptr inbounds i8, ptr %this, i64 8
  %call1.i.i.i = tail call noundef i32 @pthread_mutex_lock(ptr noundef nonnull %profilerLock_) #14
  %tobool.not.i.i = icmp eq i32 %call1.i.i.i, 0
  br i1 %tobool.not.i.i, label %_ZNSt10lock_guardISt5mutexEC2ERS0_.exit, label %if.then.i.i

if.then.i.i:                                      ; preds = %entry
  tail call void @_ZSt20__throw_system_errori(i32 noundef %call1.i.i.i) #15
  unreachable

_ZNSt10lock_guardISt5mutexEC2ERS0_.exit:          ; preds = %entry
  %enabled_ = getelementptr inbounds i8, ptr %this, i64 104
  %0 = load i8, ptr %enabled_, align 8
  %1 = and i8 %0, 1
  %tobool.not = icmp eq i8 %1, 0
  br i1 %tobool.not, label %cleanup.thread, label %if.end

if.end:                                           ; preds = %_ZNSt10lock_guardISt5mutexEC2ERS0_.exit
  %call = tail call noundef zeroext i1 @_ZN6hermes2vm17sampling_profiler7Sampler15platformDisableEv(ptr noundef nonnull align 8 dereferenceable(208) %this) #14
  br i1 %call, label %cleanup.cont, label %cleanup.thread

cleanup.thread:                                   ; preds = %_ZNSt10lock_guardISt5mutexEC2ERS0_.exit, %if.end
  %call1.i.i.i14 = tail call noundef i32 @pthread_mutex_unlock(ptr noundef nonnull %profilerLock_) #14
  br label %return

cleanup.cont:                                     ; preds = %if.end
  store i8 0, ptr %enabled_, align 8
  %call1.i.i.i1 = tail call noundef i32 @pthread_mutex_unlock(ptr noundef nonnull %profilerLock_) #14
  %enabledCondVar_ = getelementptr inbounds i8, ptr %this, i64 160
  tail call void @_ZNSt18condition_variable10notify_allEv(ptr noundef nonnull align 8 dereferenceable(48) %enabledCondVar_) #14
  %timerThread_ = getelementptr inbounds i8, ptr %this, i64 152
  tail call void @_ZNSt6thread4joinEv(ptr noundef nonnull align 8 dereferenceable(8) %timerThread_) #14
  br label %return

return:                                           ; preds = %cleanup.thread, %cleanup.cont
  %retval.1 = phi i1 [ true, %cleanup.cont ], [ %tobool.not, %cleanup.thread ]
  ret i1 %retval.1
}